target datalayout = "e-m:e-p270:32:32-p271:32:32-p272:64:64-i64:64-i128:128-f80:128-n8:16:32:64-S128"
target triple = "x86_64-pc-linux-gnu"

%struct.V360Context = type { ptr, i32, i32, i32, i32, i32, i32, i32, ptr, ptr, ptr, ptr, ptr, [6 x i32], [6 x i32], [6 x i32], [6 x i32], [3 x i32], i32, i32, float, float, i32, i32, float, float, float, float, float, i32, i32, i32, i32, i32, i32, i32, float, float, float, float, float, float, [2 x float], [2 x float], [2 x [4 x float]], [3 x float], i32, i32, i32, i32, [4 x i32], [4 x i32], [4 x i32], [4 x i32], [4 x i32], [4 x i32], [4 x i32], [4 x i32], [4 x i32], [4 x i32], [4 x i32], i32, i32, i32, i32, i32, i32, ptr, [4 x i32], ptr, ptr, ptr, ptr, ptr }
%struct.AVFilterContext = type { ptr, ptr, ptr, ptr, ptr, i32, ptr, ptr, i32, ptr, ptr, i32, i32, ptr, ptr, ptr, ptr, i32, ptr, i32, i32 }

; Function Attrs: nounwind uwtable
define internal i32 @prepare_cylindricalea_out(ptr noundef %0) #0 {
  %2 = alloca ptr, align 8
  %3 = alloca ptr, align 8
  store ptr %0, ptr %2, align 8, !tbaa !47
  call void @llvm.lifetime.start.p0(i64 8, ptr %3) #13
  %4 = load ptr, ptr %2, align 8, !tbaa !47
  %5 = getelementptr inbounds nuw %struct.AVFilterContext, ptr %4, i32 0, i32 9
  %6 = load ptr, ptr %5, align 8, !tbaa !49
  store ptr %6, ptr %3, align 8, !tbaa !4
  %7 = load ptr, ptr %3, align 8, !tbaa !4
  %8 = getelementptr inbounds nuw %struct.V360Context, ptr %7, i32 0, i32 36
  %9 = load float, ptr %8, align 4, !tbaa !119
  %10 = fpext nsz float %9 to double
  %11 = fmul nsz double %10, 0x400921FB54442D18
  %12 = fdiv nsz double %11, 3.600000e+02
  %13 = fptrunc nsz double %12 to float
  %14 = load ptr, ptr %3, align 8, !tbaa !4
  %15 = getelementptr inbounds nuw %struct.V360Context, ptr %14, i32 0, i32 42
  %16 = getelementptr inbounds [2 x float], ptr %15, i64 0, i64 0
  store float %13, ptr %16, align 4, !tbaa !99
  %17 = load ptr, ptr %3, align 8, !tbaa !4
  %18 = getelementptr inbounds nuw %struct.V360Context, ptr %17, i32 0, i32 37
  %19 = load float, ptr %18, align 8, !tbaa !120
  %20 = fdiv nsz float %19, 1.800000e+02
  %21 = load ptr, ptr %3, align 8, !tbaa !4
  %22 = getelementptr inbounds nuw %struct.V360Context, ptr %21, i32 0, i32 42
  %23 = getelementptr inbounds [2 x float], ptr %22, i64 0, i64 1
  store float %20, ptr %23, align 4, !tbaa !99
  call void @llvm.lifetime.end.p0(i64 8, ptr %3) #13
  ret i32 0
}