; Function Attrs: mustprogress nofree norecurse nosync nounwind willreturn memory(readwrite, inaccessiblemem: none) uwtable
define internal noundef i32 @prepare_cylindricalea_out(ptr noundef readonly captures(none) %0) unnamed_addr #8 {
  %2 = getelementptr inbounds nuw i8, ptr %0, i64 72
  %3 = load ptr, ptr %2, align 8, !tbaa !39
  %4 = getelementptr inbounds nuw i8, ptr %3, i64 260
  %5 = load float, ptr %4, align 4, !tbaa !109
  %6 = fpext nsz float %5 to double
  %7 = fmul nsz double %6, 0x400921FB54442D18
  %8 = fdiv nsz double %7, 3.600000e+02
  %9 = fptrunc nsz double %8 to float
  %10 = getelementptr inbounds nuw i8, ptr %3, i64 284
  store float %9, ptr %10, align 4, !tbaa !49
  %11 = getelementptr inbounds nuw i8, ptr %3, i64 264
  %12 = load float, ptr %11, align 8, !tbaa !110
  %13 = fdiv nsz float %12, 1.800000e+02
  %14 = getelementptr inbounds nuw i8, ptr %3, i64 288
  store float %13, ptr %14, align 4, !tbaa !49
  ret i32 0
}